; Function Attrs: mustprogress uwtable
define noundef i32 @_ZN32pxrInternal_v0_24__pxrReserved__17UsdSchemaRegistry13GetSchemaKindERKNS_7TfTokenE(ptr nocapture noundef nonnull readonly align 8 dereferenceable(8) %0) local_unnamed_addr #0 align 2 {
  %2 = tail call noundef ptr @_ZN32pxrInternal_v0_24__pxrReserved__17UsdSchemaRegistry14FindSchemaInfoERKNS_7TfTokenE(ptr noundef nonnull align 8 dereferenceable(8) %0)
  %.not = icmp eq ptr %2, null
  br i1 %.not, label %6, label %3

3:                                                ; preds = %1
  %4 = getelementptr inbounds nuw i8, ptr %2, i64 28
  %5 = load i32, ptr %4, align 4
  br label %6

6:                                                ; preds = %1, %3
  %7 = phi i32 [ %5, %3 ], [ 0, %1 ]
  ret i32 %7
}